Microsoft (R) COFF/PE Dumper Version 14.29.30137.0
Copyright (C) Microsoft Corporation.  All rights reserved.


Dump of file donut2.obj

File Type: COFF OBJECT

main:
  0000000000000000: 55                 push        rbp
  0000000000000001: 48 89 E5           mov         rbp,rsp
  0000000000000004: 53                 push        rbx
  0000000000000005: 56                 push        rsi
  0000000000000006: 57                 push        rdi
  0000000000000007: 41 54              push        r12
  0000000000000009: 48 81 EC 70 23 00  sub         rsp,2370h
                    00
  0000000000000010: 0F 29 B5 90 DC FF  movaps      xmmword ptr [rbp-2370h],xmm6
                    FF
  0000000000000017: 0F 29 BD A0 DC FF  movaps      xmmword ptr [rbp-2360h],xmm7
                    FF
  000000000000001E: 44 0F 29 85 B0 DC  movaps      xmmword ptr [rbp-2350h],xmm8
                    FF FF
  0000000000000026: 44 0F 29 8D C0 DC  movaps      xmmword ptr [rbp-2340h],xmm9
                    FF FF
  000000000000002E: 44 0F 29 95 D0 DC  movaps      xmmword ptr [rbp-2330h],xmm10
                    FF FF
  0000000000000036: 44 0F 29 9D E0 DC  movaps      xmmword ptr [rbp-2320h],xmm11
                    FF FF
  000000000000003E: 44 0F 29 A5 F0 DC  movaps      xmmword ptr [rbp-2310h],xmm12
                    FF FF
  0000000000000046: 0F 57 C0           xorps       xmm0,xmm0
  0000000000000049: F3 0F 11 45 FC     movss       dword ptr [rbp-4],xmm0
  000000000000004E: 0F 57 C9           xorps       xmm1,xmm1
  0000000000000051: F3 0F 11 4D F8     movss       dword ptr [rbp-8],xmm1
  0000000000000056: 48 8D 05 10 00 00  lea         rax,[.rdata+10h]
                    00
  000000000000005D: 48 89 C1           mov         rcx,rax
  0000000000000060: E8 00 00 00 00     call        printf
  0000000000000065: E9 00 00 00 00     jmp         000000000000006A
  000000000000006A: C7 C1 E0 06 00 00  mov         ecx,6E0h
  0000000000000070: 63 C1              movsxd      eax,ecx
  0000000000000072: 48 8D 8D 90 DD FF  lea         rcx,[rbp-2270h]
                    FF
  0000000000000079: C7 C2 20 00 00 00  mov         edx,20h
  000000000000007F: 49 89 C0           mov         r8,rax
  0000000000000082: E8 00 00 00 00     call        memset
  0000000000000087: C7 C1 80 1B 00 00  mov         ecx,1B80h
  000000000000008D: 63 C1              movsxd      eax,ecx
  000000000000008F: 48 8D 8D 70 E4 FF  lea         rcx,[rbp-1B90h]
                    FF
  0000000000000096: C7 C2 00 00 00 00  mov         edx,0
  000000000000009C: 49 89 C0           mov         r8,rax
  000000000000009F: E8 00 00 00 00     call        memset
  00000000000000A4: 0F 57 D2           xorps       xmm2,xmm2
  00000000000000A7: F3 0F 11 55 F0     movss       dword ptr [rbp-10h],xmm2
  00000000000000AC: F2 0F 10 1D 15 00  movsd       xmm3,mmword ptr [.rdata+15h]
                    00 00
  00000000000000B4: F3 0F 10 65 F0     movss       xmm4,dword ptr [rbp-10h]
  00000000000000B9: F3 0F 5A EC        cvtss2sd    xmm5,xmm4
  00000000000000BD: F2 0F 10 C5        movsd       xmm0,xmm5
  00000000000000C1: 66 0F 2E C3        ucomisd     xmm0,xmm3
  00000000000000C5: 0F 83 3B 05 00 00  jae         0000000000000606
  00000000000000CB: 0F 57 DB           xorps       xmm3,xmm3
  00000000000000CE: F3 0F 11 5D F4     movss       dword ptr [rbp-0Ch],xmm3
  00000000000000D3: F2 0F 10 25 1D 00  movsd       xmm4,mmword ptr [.rdata+1Dh]
                    00 00
  00000000000000DB: F3 0F 10 6D F4     movss       xmm5,dword ptr [rbp-0Ch]
  00000000000000E0: F3 0F 5A F5        cvtss2sd    xmm6,xmm5
  00000000000000E4: F2 0F 10 C6        movsd       xmm0,xmm6
  00000000000000E8: 66 0F 2E C4        ucomisd     xmm0,xmm4
  00000000000000EC: 0F 83 F5 04 00 00  jae         00000000000005E7
  00000000000000F2: F3 0F 10 65 F4     movss       xmm4,dword ptr [rbp-0Ch]
  00000000000000F7: F3 0F 5A EC        cvtss2sd    xmm5,xmm4
  00000000000000FB: F2 0F 10 CD        movsd       xmm1,xmm5
  00000000000000FF: E8 00 00 00 00     call        sin
  0000000000000104: F2 0F 5A E0        cvtsd2ss    xmm4,xmm0
  0000000000000108: F3 0F 11 A5 8C DD  movss       dword ptr [rbp-2274h],xmm4
                    FF FF
  0000000000000110: F3 0F 10 45 F0     movss       xmm0,dword ptr [rbp-10h]
  0000000000000115: F3 0F 5A E8        cvtss2sd    xmm5,xmm0
  0000000000000119: F2 0F 10 CD        movsd       xmm1,xmm5
  000000000000011D: E8 00 00 00 00     call        cos
  0000000000000122: F2 0F 5A E8        cvtsd2ss    xmm5,xmm0
  0000000000000126: F3 0F 11 AD 88 DD  movss       dword ptr [rbp-2278h],xmm5
                    FF FF
  000000000000012E: F3 0F 10 45 FC     movss       xmm0,dword ptr [rbp-4]
  0000000000000133: F3 0F 5A F0        cvtss2sd    xmm6,xmm0
  0000000000000137: F2 0F 10 CE        movsd       xmm1,xmm6
  000000000000013B: E8 00 00 00 00     call        sin
  0000000000000140: F2 0F 5A E8        cvtsd2ss    xmm5,xmm0
  0000000000000144: F3 0F 11 AD 84 DD  movss       dword ptr [rbp-227Ch],xmm5
                    FF FF
  000000000000014C: F3 0F 10 45 F0     movss       xmm0,dword ptr [rbp-10h]
  0000000000000151: F3 0F 5A F0        cvtss2sd    xmm6,xmm0
  0000000000000155: F2 0F 10 CE        movsd       xmm1,xmm6
  0000000000000159: E8 00 00 00 00     call        sin
  000000000000015E: F2 0F 5A E8        cvtsd2ss    xmm5,xmm0
  0000000000000162: F3 0F 11 AD 80 DD  movss       dword ptr [rbp-2280h],xmm5
                    FF FF
  000000000000016A: F3 0F 10 45 FC     movss       xmm0,dword ptr [rbp-4]
  000000000000016F: F3 0F 5A F0        cvtss2sd    xmm6,xmm0
  0000000000000173: F2 0F 10 CE        movsd       xmm1,xmm6
  0000000000000177: E8 00 00 00 00     call        cos
  000000000000017C: F2 0F 5A E8        cvtsd2ss    xmm5,xmm0
  0000000000000180: F3 0F 11 AD 7C DD  movss       dword ptr [rbp-2284h],xmm5
                    FF FF
  0000000000000188: F3 0F 10 85 88 DD  movss       xmm0,dword ptr [rbp-2278h]
                    FF FF
  0000000000000190: F3 0F 10 35 25 00  movss       xmm6,dword ptr [.rdata+25h]
                    00 00
  0000000000000198: F3 0F 58 C6        addss       xmm0,xmm6
  000000000000019C: F3 0F 11 85 78 DD  movss       dword ptr [rbp-2288h],xmm0
                    FF FF
  00000000000001A4: F3 0F 10 35 29 00  movss       xmm6,dword ptr [.rdata+29h]
                    00 00
  00000000000001AC: F3 0F 10 BD 8C DD  movss       xmm7,dword ptr [rbp-2274h]
                    FF FF
  00000000000001B4: F3 44 0F 10 85 78  movss       xmm8,dword ptr [rbp-2288h]
                    DD FF FF
  00000000000001BD: F3 41 0F 59 F8     mulss       xmm7,xmm8
  00000000000001C2: F3 44 0F 10 85 84  movss       xmm8,dword ptr [rbp-227Ch]
                    DD FF FF
  00000000000001CB: F3 41 0F 59 F8     mulss       xmm7,xmm8
  00000000000001D0: F3 44 0F 10 85 80  movss       xmm8,dword ptr [rbp-2280h]
                    DD FF FF
  00000000000001D9: F3 44 0F 10 8D 7C  movss       xmm9,dword ptr [rbp-2284h]
                    DD FF FF
  00000000000001E2: F3 45 0F 59 C1     mulss       xmm8,xmm9
  00000000000001E7: F3 41 0F 58 F8     addss       xmm7,xmm8
  00000000000001EC: F3 44 0F 10 05 2D  movss       xmm8,dword ptr [.rdata+2Dh]
                    00 00 00
  00000000000001F5: F3 41 0F 58 F8     addss       xmm7,xmm8
  00000000000001FA: F3 0F 5E F7        divss       xmm6,xmm7
  00000000000001FE: F3 0F 11 B5 74 DD  movss       dword ptr [rbp-228Ch],xmm6
                    FF FF
  0000000000000206: F3 0F 10 7D F4     movss       xmm7,dword ptr [rbp-0Ch]
  000000000000020B: F3 44 0F 5A C7     cvtss2sd    xmm8,xmm7
  0000000000000210: F2 41 0F 10 C8     movsd       xmm1,xmm8
  0000000000000215: E8 00 00 00 00     call        cos
  000000000000021A: F2 0F 5A E8        cvtsd2ss    xmm5,xmm0
  000000000000021E: F3 0F 11 AD 70 DD  movss       dword ptr [rbp-2290h],xmm5
                    FF FF
  0000000000000226: F3 0F 10 45 F8     movss       xmm0,dword ptr [rbp-8]
  000000000000022B: F3 0F 5A F0        cvtss2sd    xmm6,xmm0
  000000000000022F: F2 0F 10 CE        movsd       xmm1,xmm6
  0000000000000233: E8 00 00 00 00     call        cos
  0000000000000238: F2 0F 5A E8        cvtsd2ss    xmm5,xmm0
  000000000000023C: F3 0F 11 AD 6C DD  movss       dword ptr [rbp-2294h],xmm5
                    FF FF
  0000000000000244: F3 0F 10 45 F8     movss       xmm0,dword ptr [rbp-8]
  0000000000000249: F3 0F 5A F0        cvtss2sd    xmm6,xmm0
  000000000000024D: F2 0F 10 CE        movsd       xmm1,xmm6
  0000000000000251: E8 00 00 00 00     call        sin
  0000000000000256: F2 0F 5A E8        cvtsd2ss    xmm5,xmm0
  000000000000025A: F3 0F 11 AD 68 DD  movss       dword ptr [rbp-2298h],xmm5
                    FF FF
  0000000000000262: F3 0F 10 85 8C DD  movss       xmm0,dword ptr [rbp-2274h]
                    FF FF
  000000000000026A: F3 0F 10 B5 78 DD  movss       xmm6,dword ptr [rbp-2288h]
                    FF FF
  0000000000000272: F3 0F 59 C6        mulss       xmm0,xmm6
  0000000000000276: F3 0F 10 B5 7C DD  movss       xmm6,dword ptr [rbp-2284h]
                    FF FF
  000000000000027E: F3 0F 59 C6        mulss       xmm0,xmm6
  0000000000000282: F3 0F 10 B5 80 DD  movss       xmm6,dword ptr [rbp-2280h]
                    FF FF
  000000000000028A: F3 0F 10 BD 84 DD  movss       xmm7,dword ptr [rbp-227Ch]
                    FF FF
  0000000000000292: F3 0F 59 F7        mulss       xmm6,xmm7
  0000000000000296: F3 0F 5C C6        subss       xmm0,xmm6
  000000000000029A: F3 0F 11 85 64 DD  movss       dword ptr [rbp-229Ch],xmm0
                    FF FF
  00000000000002A2: F3 0F 10 35 31 00  movss       xmm6,dword ptr [.rdata+31h]
                    00 00
  00000000000002AA: F3 0F 10 3D 35 00  movss       xmm7,dword ptr [.rdata+35h]
                    00 00
  00000000000002B2: F3 44 0F 10 85 74  movss       xmm8,dword ptr [rbp-228Ch]
                    DD FF FF
  00000000000002BB: F3 41 0F 59 F8     mulss       xmm7,xmm8
  00000000000002C0: F3 44 0F 10 85 70  movss       xmm8,dword ptr [rbp-2290h]
                    DD FF FF
  00000000000002C9: F3 44 0F 10 8D 78  movss       xmm9,dword ptr [rbp-2288h]
                    DD FF FF
  00000000000002D2: F3 45 0F 59 C1     mulss       xmm8,xmm9
  00000000000002D7: F3 44 0F 10 8D 6C  movss       xmm9,dword ptr [rbp-2294h]
                    DD FF FF
  00000000000002E0: F3 45 0F 59 C1     mulss       xmm8,xmm9
  00000000000002E5: F3 44 0F 10 8D 64  movss       xmm9,dword ptr [rbp-229Ch]
                    DD FF FF
  00000000000002EE: F3 44 0F 10 95 68  movss       xmm10,dword ptr [rbp-2298h]
                    DD FF FF
  00000000000002F7: F3 45 0F 59 CA     mulss       xmm9,xmm10
  00000000000002FC: F3 45 0F 5C C1     subss       xmm8,xmm9
  0000000000000301: F3 41 0F 59 F8     mulss       xmm7,xmm8
  0000000000000306: F3 0F 58 F7        addss       xmm6,xmm7
  000000000000030A: F3 0F 10 FE        movss       xmm7,xmm6
  000000000000030E: F3 0F 2D C7        cvtss2si    eax,xmm7
  0000000000000312: 89 85 60 DD FF FF  mov         dword ptr [rbp-22A0h],eax
  0000000000000318: F3 0F 10 35 39 00  movss       xmm6,dword ptr [.rdata+39h]
                    00 00
  0000000000000320: F3 44 0F 10 05 3D  movss       xmm8,dword ptr [.rdata+3Dh]
                    00 00 00
  0000000000000329: F3 44 0F 10 8D 74  movss       xmm9,dword ptr [rbp-228Ch]
                    DD FF FF
  0000000000000332: F3 45 0F 59 C1     mulss       xmm8,xmm9
  0000000000000337: F3 44 0F 10 8D 70  movss       xmm9,dword ptr [rbp-2290h]
                    DD FF FF
  0000000000000340: F3 44 0F 10 95 78  movss       xmm10,dword ptr [rbp-2288h]
                    DD FF FF
  0000000000000349: F3 45 0F 59 CA     mulss       xmm9,xmm10
  000000000000034E: F3 44 0F 10 95 68  movss       xmm10,dword ptr [rbp-2298h]
                    DD FF FF
  0000000000000357: F3 45 0F 59 CA     mulss       xmm9,xmm10
  000000000000035C: F3 44 0F 10 95 64  movss       xmm10,dword ptr [rbp-229Ch]
                    DD FF FF
  0000000000000365: F3 44 0F 10 9D 6C  movss       xmm11,dword ptr [rbp-2294h]
                    DD FF FF
  000000000000036E: F3 45 0F 59 D3     mulss       xmm10,xmm11
  0000000000000373: F3 45 0F 58 CA     addss       xmm9,xmm10
  0000000000000378: F3 45 0F 59 C1     mulss       xmm8,xmm9
  000000000000037D: F3 41 0F 58 F0     addss       xmm6,xmm8
  0000000000000382: F3 44 0F 10 C6     movss       xmm8,xmm6
  0000000000000387: F3 41 0F 2D C8     cvtss2si    ecx,xmm8
  000000000000038C: 89 8D 5C DD FF FF  mov         dword ptr [rbp-22A4h],ecx
  0000000000000392: 8B 95 60 DD FF FF  mov         edx,dword ptr [rbp-22A0h]
  0000000000000398: 44 8B 85 5C DD FF  mov         r8d,dword ptr [rbp-22A4h]
                    FF
  000000000000039F: 41 C7 C1 50 00 00  mov         r9d,50h
                    00
  00000000000003A6: 45 0F AF C8        imul        r9d,r8d
  00000000000003AA: 41 89 D0           mov         r8d,edx
  00000000000003AD: 45 01 C8           add         r8d,r9d
  00000000000003B0: 44 89 85 58 DD FF  mov         dword ptr [rbp-22A8h],r8d
                    FF
  00000000000003B7: F3 0F 10 35 41 00  movss       xmm6,dword ptr [.rdata+41h]
                    00 00
  00000000000003BF: F3 44 0F 10 8D 80  movss       xmm9,dword ptr [rbp-2280h]
                    DD FF FF
  00000000000003C8: F3 44 0F 10 95 84  movss       xmm10,dword ptr [rbp-227Ch]
                    DD FF FF
  00000000000003D1: F3 45 0F 59 CA     mulss       xmm9,xmm10
  00000000000003D6: F3 44 0F 10 95 8C  movss       xmm10,dword ptr [rbp-2274h]
                    DD FF FF
  00000000000003DF: F3 44 0F 10 9D 88  movss       xmm11,dword ptr [rbp-2278h]
                    DD FF FF
  00000000000003E8: F3 45 0F 59 D3     mulss       xmm10,xmm11
  00000000000003ED: F3 44 0F 10 9D 7C  movss       xmm11,dword ptr [rbp-2284h]
                    DD FF FF
  00000000000003F6: F3 45 0F 59 D3     mulss       xmm10,xmm11
  00000000000003FB: F3 45 0F 5C CA     subss       xmm9,xmm10
  0000000000000400: F3 44 0F 10 95 6C  movss       xmm10,dword ptr [rbp-2294h]
                    DD FF FF
  0000000000000409: F3 45 0F 59 CA     mulss       xmm9,xmm10
  000000000000040E: F3 44 0F 10 95 8C  movss       xmm10,dword ptr [rbp-2274h]
                    DD FF FF
  0000000000000417: F3 44 0F 10 9D 88  movss       xmm11,dword ptr [rbp-2278h]
                    DD FF FF
  0000000000000420: F3 45 0F 59 D3     mulss       xmm10,xmm11
  0000000000000425: F3 44 0F 10 9D 84  movss       xmm11,dword ptr [rbp-227Ch]
                    DD FF FF
  000000000000042E: F3 45 0F 59 D3     mulss       xmm10,xmm11
  0000000000000433: F3 45 0F 5C CA     subss       xmm9,xmm10
  0000000000000438: F3 44 0F 10 95 80  movss       xmm10,dword ptr [rbp-2280h]
                    DD FF FF
  0000000000000441: F3 44 0F 10 9D 7C  movss       xmm11,dword ptr [rbp-2284h]
                    DD FF FF
  000000000000044A: F3 45 0F 59 D3     mulss       xmm10,xmm11
  000000000000044F: F3 45 0F 5C CA     subss       xmm9,xmm10
  0000000000000454: F3 44 0F 10 95 70  movss       xmm10,dword ptr [rbp-2290h]
                    DD FF FF
  000000000000045D: F3 44 0F 10 9D 88  movss       xmm11,dword ptr [rbp-2278h]
                    DD FF FF
  0000000000000466: F3 45 0F 59 D3     mulss       xmm10,xmm11
  000000000000046B: F3 44 0F 10 9D 68  movss       xmm11,dword ptr [rbp-2298h]
                    DD FF FF
  0000000000000474: F3 45 0F 59 D3     mulss       xmm10,xmm11
  0000000000000479: F3 45 0F 5C CA     subss       xmm9,xmm10
  000000000000047E: F3 41 0F 59 F1     mulss       xmm6,xmm9
  0000000000000483: F3 44 0F 10 CE     movss       xmm9,xmm6
  0000000000000488: F3 41 0F 2D D1     cvtss2si    edx,xmm9
  000000000000048D: 89 95 54 DD FF FF  mov         dword ptr [rbp-22ACh],edx
  0000000000000493: 44 8B 8D 5C DD FF  mov         r9d,dword ptr [rbp-22A4h]
                    FF
  000000000000049A: 45 89 CA           mov         r10d,r9d
  000000000000049D: 41 83 FA 16        cmp         r10d,16h
  00000000000004A1: 0F 8D 8B 00 00 00  jge         0000000000000532
  00000000000004A7: 44 8B 8D 5C DD FF  mov         r9d,dword ptr [rbp-22A4h]
                    FF
  00000000000004AE: 45 89 CA           mov         r10d,r9d
  00000000000004B1: 41 83 FA 00        cmp         r10d,0
  00000000000004B5: 0F 8E 77 00 00 00  jle         0000000000000532
  00000000000004BB: E9 00 00 00 00     jmp         00000000000004C0
  00000000000004C0: 44 8B 8D 60 DD FF  mov         r9d,dword ptr [rbp-22A0h]
                    FF
  00000000000004C7: 45 89 CA           mov         r10d,r9d
  00000000000004CA: 41 83 FA 00        cmp         r10d,0
  00000000000004CE: 0F 8E 5E 00 00 00  jle         0000000000000532
  00000000000004D4: E9 00 00 00 00     jmp         00000000000004D9
  00000000000004D9: 44 8B 8D 60 DD FF  mov         r9d,dword ptr [rbp-22A0h]
                    FF
  00000000000004E0: 45 89 CA           mov         r10d,r9d
  00000000000004E3: 41 83 FA 50        cmp         r10d,50h
  00000000000004E7: 0F 8D 45 00 00 00  jge         0000000000000532
  00000000000004ED: E9 00 00 00 00     jmp         00000000000004F2
  00000000000004F2: F3 0F 10 B5 74 DD  movss       xmm6,dword ptr [rbp-228Ch]
                    FF FF
  00000000000004FA: 44 8B 8D 58 DD FF  mov         r9d,dword ptr [rbp-22A8h]
                    FF
  0000000000000501: 45 63 D1           movsxd      r10d,r9d
  0000000000000504: 4D 89 D1           mov         r9,r10
  0000000000000507: 4C 8D 9D 70 E4 FF  lea         r11,[rbp-1B90h]
                    FF
  000000000000050E: 4D 89 DA           mov         r10,r11
  0000000000000511: F3 47 0F 10 14 8A  movss       xmm10,dword ptr [r10+r9*4]
  0000000000000517: F3 45 0F 10 D2     movss       xmm10,xmm10
  000000000000051C: 44 0F 2E D6        ucomiss     xmm10,xmm6
  0000000000000520: 0F 83 0C 00 00 00  jae         0000000000000532
  0000000000000526: C6 85 53 DD FF FF  mov         byte ptr [rbp-22ADh],1
                    01
  000000000000052D: E9 07 00 00 00     jmp         0000000000000539
  0000000000000532: C6 85 53 DD FF FF  mov         byte ptr [rbp-22ADh],0
                    00
  0000000000000539: 80 BD 53 DD FF FF  cmp         byte ptr [rbp-22ADh],0
                    00
  0000000000000540: 0F 84 82 00 00 00  je          00000000000005C8
  0000000000000546: 44 8B 95 58 DD FF  mov         r10d,dword ptr [rbp-22A8h]
                    FF
  000000000000054D: 45 63 DA           movsxd      r11d,r10d
  0000000000000550: 4D 89 DA           mov         r10,r11
  0000000000000553: 48 8D BD 70 E4 FF  lea         rdi,[rbp-1B90h]
                    FF
  000000000000055A: 49 89 FB           mov         r11,rdi
  000000000000055D: 4F 8D 1C 93        lea         r11,[r11+r10*4]
  0000000000000561: F3 0F 10 B5 74 DD  movss       xmm6,dword ptr [rbp-228Ch]
                    FF FF
  0000000000000569: F3 41 0F 11 33     movss       dword ptr [r11],xmm6
  000000000000056E: 8B BD 58 DD FF FF  mov         edi,dword ptr [rbp-22A8h]
  0000000000000574: 63 F7              movsxd      esi,edi
  0000000000000576: 48 89 F7           mov         rdi,rsi
  0000000000000579: 48 8D B5 90 DD FF  lea         rsi,[rbp-2270h]
                    FF
  0000000000000580: 48 01 F7           add         rdi,rsi
  0000000000000583: 8B B5 54 DD FF FF  mov         esi,dword ptr [rbp-22ACh]
  0000000000000589: 89 F3              mov         ebx,esi
  000000000000058B: 83 FB 00           cmp         ebx,0
  000000000000058E: 0F 8E 11 00 00 00  jle         00000000000005A5
  0000000000000594: 8B B5 54 DD FF FF  mov         esi,dword ptr [rbp-22ACh]
  000000000000059A: 89 B5 4C DD FF FF  mov         dword ptr [rbp-22B4h],esi
  00000000000005A0: E9 0A 00 00 00     jmp         00000000000005AF
  00000000000005A5: C7 85 4C DD FF FF  mov         dword ptr [rbp-22B4h],0
                    00 00 00 00
  00000000000005AF: 63 9D 4C DD FF FF  movsxd      ebx,dword ptr [rbp-22B4h]
  00000000000005B5: 49 89 DC           mov         r12,rbx
  00000000000005B8: 48 8D 1D 00 00 00  lea         rbx,[string]
                    00
  00000000000005BF: 49 01 DC           add         r12,rbx
  00000000000005C2: 41 8A 1C 24        mov         bl,byte ptr [r12]
  00000000000005C6: 88 1F              mov         byte ptr [rdi],bl
  00000000000005C8: F3 44 0F 10 55 F4  movss       xmm10,dword ptr [rbp-0Ch]
  00000000000005CE: F3 44 0F 10 1D 45  movss       xmm11,dword ptr [.rdata+45h]
                    00 00 00
  00000000000005D7: F3 45 0F 58 D3     addss       xmm10,xmm11
  00000000000005DC: F3 44 0F 11 55 F4  movss       dword ptr [rbp-0Ch],xmm10
  00000000000005E2: E9 EC FA FF FF     jmp         00000000000000D3
  00000000000005E7: F3 44 0F 10 5D F0  movss       xmm11,dword ptr [rbp-10h]
  00000000000005ED: F3 44 0F 10 25 49  movss       xmm12,dword ptr [.rdata+49h]
                    00 00 00
  00000000000005F6: F3 45 0F 58 DC     addss       xmm11,xmm12
  00000000000005FB: F3 44 0F 11 5D F0  movss       dword ptr [rbp-10h],xmm11
  0000000000000601: E9 A6 FA FF FF     jmp         00000000000000AC
  0000000000000606: 4C 8D 25 4D 00 00  lea         r12,[.rdata+4Dh]
                    00
  000000000000060D: 4C 89 E1           mov         rcx,r12
  0000000000000610: 4C 89 8D 40 DD FF  mov         qword ptr [rbp-22C0h],r9
                    FF
  0000000000000617: E8 00 00 00 00     call        printf
  000000000000061C: C7 05 FC FF FF FF  mov         dword ptr [k+0FFFFFFFCh],0
                    00 00 00 00
  0000000000000626: 8B 05 00 00 00 00  mov         eax,dword ptr [k]
  000000000000062C: 89 C1              mov         ecx,eax
  000000000000062E: 81 F9 E1 06 00 00  cmp         ecx,6E1h
  0000000000000634: 0F 8D 77 00 00 00  jge         00000000000006B1
  000000000000063A: 8B 05 00 00 00 00  mov         eax,dword ptr [k]
  0000000000000640: 89 85 3C DD FF FF  mov         dword ptr [rbp-22C4h],eax
  0000000000000646: 8B 85 3C DD FF FF  mov         eax,dword ptr [rbp-22C4h]
  000000000000064C: 99                 cdq
  000000000000064D: C7 C1 50 00 00 00  mov         ecx,50h
  0000000000000653: 48 F7 F9           idiv        rax,rcx
  0000000000000656: 89 D0              mov         eax,edx
  0000000000000658: 83 F8 00           cmp         eax,0
  000000000000065B: 0F 84 25 00 00 00  je          0000000000000686
  0000000000000661: 8B 05 00 00 00 00  mov         eax,dword ptr [k]
  0000000000000667: 63 C8              movsxd      ecx,eax
  0000000000000669: 48 89 C8           mov         rax,rcx
  000000000000066C: 48 8D 8D 90 DD FF  lea         rcx,[rbp-2270h]
                    FF
  0000000000000673: 48 01 C8           add         rax,rcx
  0000000000000676: 8A 08              mov         cl,byte ptr [rax]
  0000000000000678: 0F BE C1           movsx       eax,cl
  000000000000067B: 89 85 38 DD FF FF  mov         dword ptr [rbp-22C8h],eax
  0000000000000681: E9 0A 00 00 00     jmp         0000000000000690
  0000000000000686: C7 85 38 DD FF FF  mov         dword ptr [rbp-22C8h],0Ah
                    0A 00 00 00
  0000000000000690: 8B 8D 38 DD FF FF  mov         ecx,dword ptr [rbp-22C8h]
  0000000000000696: E8 00 00 00 00     call        putchar
  000000000000069B: 8B 0D 00 00 00 00  mov         ecx,dword ptr [k]
  00000000000006A1: 89 CA              mov         edx,ecx
  00000000000006A3: 83 C2 01           add         edx,1
  00000000000006A6: 89 15 00 00 00 00  mov         dword ptr [k],edx
  00000000000006AC: E9 75 FF FF FF     jmp         0000000000000626
  00000000000006B1: F3 0F 10 45 FC     movss       xmm0,dword ptr [rbp-4]
  00000000000006B6: F3 0F 10 2D 51 00  movss       xmm5,dword ptr [.rdata+51h]
                    00 00
  00000000000006BE: F3 0F 58 C5        addss       xmm0,xmm5
  00000000000006C2: F3 0F 11 45 FC     movss       dword ptr [rbp-4],xmm0
  00000000000006C7: F3 0F 10 6D F8     movss       xmm5,dword ptr [rbp-8]
  00000000000006CC: F3 0F 10 35 55 00  movss       xmm6,dword ptr [.rdata+55h]
                    00 00
  00000000000006D4: F3 0F 58 EE        addss       xmm5,xmm6
  00000000000006D8: F3 0F 11 6D F8     movss       dword ptr [rbp-8],xmm5
  00000000000006DD: E9 83 F9 FF FF     jmp         0000000000000065
  00000000000006E2: C7 C0 00 00 00 00  mov         eax,0
  00000000000006E8: 0F 28 B5 90 DC FF  movaps      xmm6,xmmword ptr [rbp-2370h]
                    FF
  00000000000006EF: 0F 28 BD A0 DC FF  movaps      xmm7,xmmword ptr [rbp-2360h]
                    FF
  00000000000006F6: 44 0F 28 85 B0 DC  movaps      xmm8,xmmword ptr [rbp-2350h]
                    FF FF
  00000000000006FE: 44 0F 28 8D C0 DC  movaps      xmm9,xmmword ptr [rbp-2340h]
                    FF FF
  0000000000000706: 44 0F 28 95 D0 DC  movaps      xmm10,xmmword ptr [rbp-2330h]
                    FF FF
  000000000000070E: 44 0F 28 9D E0 DC  movaps      xmm11,xmmword ptr [rbp-2320h]
                    FF FF
  0000000000000716: 44 0F 28 A5 F0 DC  movaps      xmm12,xmmword ptr [rbp-2310h]
                    FF FF
  000000000000071E: 48 81 C4 70 23 00  add         rsp,2370h
                    00
  0000000000000725: 41 5C              pop         r12
  0000000000000727: 5F                 pop         rdi
  0000000000000728: 5E                 pop         rsi
  0000000000000729: 5B                 pop         rbx
  000000000000072A: 5D                 pop         rbp
  000000000000072B: C3                 ret

  Summary

          16 .data
          59 .rdata
         72C .text
